; Function Attrs: mustprogress nofree norecurse nosync nounwind willreturn memory(read, inaccessiblemem: none) uwtable
define dso_local i32 @clientTotalPubSubSubscriptionCount(ptr noundef readonly captures(none) %0) local_unnamed_addr #1 {
  %2 = getelementptr inbounds nuw i8, ptr %0, i64 568
  %3 = load ptr, ptr %2, align 8, !tbaa !5
  %4 = getelementptr inbounds nuw i8, ptr %3, i64 24
  %5 = load i64, ptr %4, align 8, !tbaa !28
  %6 = getelementptr inbounds nuw i8, ptr %3, i64 32
  %7 = load i64, ptr %6, align 8, !tbaa !28
  %8 = getelementptr inbounds nuw i8, ptr %0, i64 576
  %9 = load ptr, ptr %8, align 8, !tbaa !29
  %10 = getelementptr inbounds nuw i8, ptr %9, i64 24
  %11 = load i64, ptr %10, align 8, !tbaa !28
  %12 = getelementptr inbounds nuw i8, ptr %9, i64 32
  %13 = load i64, ptr %12, align 8, !tbaa !28
  %14 = add i64 %7, %5
  %15 = add i64 %14, %11
  %16 = add i64 %15, %13
  %17 = trunc i64 %16 to i32
  %18 = getelementptr inbounds nuw i8, ptr %0, i64 584
  %19 = load ptr, ptr %18, align 8, !tbaa !30
  %20 = getelementptr inbounds nuw i8, ptr %19, i64 24
  %21 = load i64, ptr %20, align 8, !tbaa !28
  %22 = getelementptr inbounds nuw i8, ptr %19, i64 32
  %23 = load i64, ptr %22, align 8, !tbaa !28
  %24 = add i64 %23, %21
  %25 = trunc i64 %24 to i32
  %26 = add nsw i32 %25, %17
  ret i32 %26
}